target datalayout = "e-m:e-p270:32:32-p271:32:32-p272:64:64-i64:64-i128:128-f80:128-n8:16:32:64-S128"
target triple = "x86_64-pc-linux-gnu"

%struct.Abc_Ntk_t_ = type { i32, i32, ptr, ptr, ptr, ptr, ptr, ptr, ptr, ptr, ptr, ptr, ptr, [11 x i32], i32, i32, i32, i32, ptr, i32, ptr, ptr, i32, i32, i32, double, i32, %struct.Vec_Int_t_, ptr, ptr, ptr, ptr, ptr, float, i32, ptr, ptr, ptr, ptr, ptr, ptr, ptr, ptr, ptr, ptr, ptr, ptr, ptr, ptr, ptr, ptr, ptr, ptr, ptr, ptr, ptr }
%struct.Vec_Int_t_ = type { i32, i32, ptr }
%struct.Abc_Obj_t_ = type { ptr, ptr, i32, i32, %struct.Vec_Int_t_, %struct.Vec_Int_t_, %union.anon, %union.anon.0 }
%union.anon = type { ptr }
%union.anon.0 = type { ptr }
%struct.Vec_Ptr_t_ = type { i32, i32, ptr }

; Function Attrs: nounwind uwtable
define internal float @Abc_MaxFloat(float noundef %0, float noundef %1) #0 {
  %3 = alloca float, align 4
  %4 = alloca float, align 4
  store float %0, ptr %3, align 4
  store float %1, ptr %4, align 4
  %5 = load float, ptr %3, align 4
  %6 = load float, ptr %4, align 4
  %7 = fcmp ogt float %5, %6
  br i1 %7, label %8, label %10

8:                                                ; preds = %2
  %9 = load float, ptr %3, align 4
  br label %12

10:                                               ; preds = %2
  %11 = load float, ptr %4, align 4
  br label %12

12:                                               ; preds = %10, %8
  %13 = phi float [ %9, %8 ], [ %11, %10 ]
  ret float %13
}

; Function Attrs: nounwind uwtable
define internal i32 @Abc_ObjLevel(ptr noundef %0) #0 {
  %2 = alloca ptr, align 8
  store ptr %0, ptr %2, align 8
  %3 = load ptr, ptr %2, align 8
  %4 = getelementptr inbounds %struct.Abc_Obj_t_, ptr %3, i32 0, i32 3
  %5 = load i32, ptr %4, align 4
  %6 = lshr i32 %5, 12
  ret i32 %6
}

; Function Attrs: nounwind uwtable
define internal ptr @Abc_ObjFanin(ptr noundef %0, i32 noundef %1) #0 {
  %3 = alloca ptr, align 8
  %4 = alloca i32, align 4
  store ptr %0, ptr %3, align 8
  store i32 %1, ptr %4, align 4
  %5 = load ptr, ptr %3, align 8
  %6 = getelementptr inbounds %struct.Abc_Obj_t_, ptr %5, i32 0, i32 0
  %7 = load ptr, ptr %6, align 8
  %8 = getelementptr inbounds %struct.Abc_Ntk_t_, ptr %7, i32 0, i32 5
  %9 = load ptr, ptr %8, align 8
  %10 = getelementptr inbounds %struct.Vec_Ptr_t_, ptr %9, i32 0, i32 2
  %11 = load ptr, ptr %10, align 8
  %12 = load ptr, ptr %3, align 8
  %13 = getelementptr inbounds %struct.Abc_Obj_t_, ptr %12, i32 0, i32 4
  %14 = getelementptr inbounds %struct.Vec_Int_t_, ptr %13, i32 0, i32 2
  %15 = load ptr, ptr %14, align 8
  %16 = load i32, ptr %4, align 4
  %17 = sext i32 %16 to i64
  %18 = getelementptr inbounds i32, ptr %15, i64 %17
  %19 = load i32, ptr %18, align 4
  %20 = sext i32 %19 to i64
  %21 = getelementptr inbounds ptr, ptr %11, i64 %20
  %22 = load ptr, ptr %21, align 8
  ret ptr %22
}

; Function Attrs: nounwind uwtable
define internal i32 @Abc_ObjFaninNum(ptr noundef %0) #0 {
  %2 = alloca ptr, align 8
  store ptr %0, ptr %2, align 8
  %3 = load ptr, ptr %2, align 8
  %4 = getelementptr inbounds %struct.Abc_Obj_t_, ptr %3, i32 0, i32 4
  %5 = getelementptr inbounds %struct.Vec_Int_t_, ptr %4, i32 0, i32 1
  %6 = load i32, ptr %5, align 4
  ret i32 %6
}

; Function Attrs: nounwind uwtable
define i32 @Abc_ObjLevelNew(ptr noundef %0) #0 {
  %2 = alloca ptr, align 8
  %3 = alloca ptr, align 8
  %4 = alloca i32, align 4
  %5 = alloca i32, align 4
  store ptr %0, ptr %2, align 8
  store i32 0, ptr %5, align 4
  store i32 0, ptr %4, align 4
  br label %6

6:                                                ; preds = %25, %1
  %7 = load i32, ptr %4, align 4
  %8 = load ptr, ptr %2, align 8
  %9 = call i32 @Abc_ObjFaninNum(ptr noundef %8)
  %10 = icmp slt i32 %7, %9
  br i1 %10, label %11, label %15

11:                                               ; preds = %6
  %12 = load ptr, ptr %2, align 8
  %13 = load i32, ptr %4, align 4
  %14 = call ptr @Abc_ObjFanin(ptr noundef %12, i32 noundef %13)
  store ptr %14, ptr %3, align 8
  br label %15

15:                                               ; preds = %11, %6
  %16 = phi i1 [ false, %6 ], [ true, %11 ]
  br i1 %16, label %17, label %28

17:                                               ; preds = %15
  %18 = load i32, ptr %5, align 4
  %19 = sitofp i32 %18 to float
  %20 = load ptr, ptr %3, align 8
  %21 = call i32 @Abc_ObjLevel(ptr noundef %20)
  %22 = sitofp i32 %21 to float
  %23 = call float @Abc_MaxFloat(float noundef %19, float noundef %22)
  %24 = fptosi float %23 to i32
  store i32 %24, ptr %5, align 4
  br label %25

25:                                               ; preds = %17
  %26 = load i32, ptr %4, align 4
  %27 = add nsw i32 %26, 1
  store i32 %27, ptr %4, align 4
  br label %6, !llvm.loop !47

28:                                               ; preds = %15
  %29 = load i32, ptr %5, align 4
  %30 = load ptr, ptr %2, align 8
  %31 = call i32 @Abc_ObjFaninNum(ptr noundef %30)
  %32 = icmp sgt i32 %31, 0
  %33 = zext i1 %32 to i32
  %34 = add nsw i32 %29, %33
  ret i32 %34
}