; Function Attrs: nofree norecurse nosync nounwind memory(read, inaccessiblemem: none) uwtable
define i32 @Abc_ObjLevelNew(ptr noundef readonly captures(none) %0) local_unnamed_addr #14 {
  %2 = getelementptr i8, ptr %0, i64 28
  %.val9 = load i32, ptr %2, align 4
  %3 = icmp sgt i32 %.val9, 0
  br i1 %3, label %.lr.ph, label %.critedge

.lr.ph:                                           ; preds = %1
  %.val10 = load ptr, ptr %0, align 8
  %4 = getelementptr i8, ptr %0, i64 32
  %.val11 = load ptr, ptr %4, align 8
  %5 = getelementptr i8, ptr %.val10, i64 32
  %.val10.val = load ptr, ptr %5, align 8
  %6 = getelementptr i8, ptr %.val10.val, i64 8
  %.val10.val.val = load ptr, ptr %6, align 8
  %wide.trip.count = zext nneg i32 %.val9 to i64
  br label %7

7:                                                ; preds = %.lr.ph, %7
  %indvars.iv = phi i64 [ 0, %.lr.ph ], [ %indvars.iv.next, %7 ]
  %.014 = phi i32 [ 0, %.lr.ph ], [ %19, %7 ]
  %8 = getelementptr inbounds nuw i32, ptr %.val11, i64 %indvars.iv
  %9 = load i32, ptr %8, align 4
  %10 = sext i32 %9 to i64
  %11 = getelementptr inbounds ptr, ptr %.val10.val.val, i64 %10
  %12 = load ptr, ptr %11, align 8
  %13 = sitofp i32 %.014 to float
  %14 = getelementptr i8, ptr %12, i64 20
  %.val12 = load i32, ptr %14, align 4
  %15 = lshr i32 %.val12, 12
  %16 = uitofp nneg i32 %15 to float
  %17 = fcmp ogt float %13, %16
  %18 = select i1 %17, float %13, float %16
  %19 = fptosi float %18 to i32
  %indvars.iv.next = add nuw nsw i64 %indvars.iv, 1
  %exitcond.not = icmp eq i64 %indvars.iv.next, %wide.trip.count
  br i1 %exitcond.not, label %.critedge, label %7, !llvm.loop !47

.critedge:                                        ; preds = %7, %1
  %.0.lcssa = phi i32 [ 0, %1 ], [ %19, %7 ]
  %20 = zext i1 %3 to i32
  %21 = add nsw i32 %.0.lcssa, %20
  ret i32 %21
}